(dp0
S'Ru'
p1
F12.369999999999999
sS'Re'
p2
F21.02
sS'Rf'
p3
F18.100000000000001
sS'Rg'
p4
F19.282
sS'Ra'
p5
F5.5
sS'Rb'
p6
F1.532
sS'Rn'
p7
F0.0097300000000000008
sS'Rh'
p8
F12.41
sS'Be'
p9
F1.8500000000000001
sS'Ba'
p10
F3.5939999999999999
sS'Bh'
p11
I37
sS'Bi'
p12
F9.8070000000000004
sS'Bk'
p13
F14.789999999999999
sS'Br'
p14
F3.1219999999999999
sS'Uuh'
p15
F9.3200000000000003
sS'H'
p16
F8.988e-005
sS'P'
p17
F1.8200000000000001
sS'Os'
p18
F22.609999999999999
sS'Es'
p19
F13.5
sS'Hg'
p20
F13.5336
sS'Ge'
p21
F5.3230000000000004
sS'Gd'
p22
F7.8949999999999996
sS'Ga'
p23
F5.907
sS'Uub'
p24
F13.5336
sS'Pr'
p25
F6.7729999999999997
sS'Pt'
p26
F21.460000000000001
sS'Pu'
p27
F19.84
sS'C'
p28
F2.2669999999999999
sS'Pb'
p29
F11.342000000000001
sS'Pa'
p30
F15.369999999999999
sS'Pd'
p31
F12.02
sS'Cd'
p32
F8.6899999999999995
sS'Po'
p33
F9.3200000000000003
sS'Pm'
p34
F7.2599999999999998
sS'Uut'
p35
F11.85
sS'Uuq'
p36
F11.342000000000001
sS'Uup'
p37
F9.8070000000000004
sS'Ho'
p38
F8.7949999999999999
sS'Hf'
p39
F13.31
sS'Mo'
p40
F10.220000000000001
sS'He'
p41
F0.0001785
sS'Mg'
p42
F1.738
sS'K'
p43
F0.86199999999999999
sS'Mn'
p44
F7.4400000000000004
sS'O'
p45
F0.0014289999999999999
sS'Mt'
p46
I35
sS'S'
p47
F2.0670000000000002
sS'W'
p48
F19.25
sS'Zn'
p49
F7.1340000000000003
sS'Eu'
p50
F5.2430000000000003
sS'Zr'
p51
F6.5060000000000002
sS'Er'
p52
F9.0660000000000007
sS'Ni'
p53
F8.9120000000000008
sS'Na'
p54
F0.97099999999999997
sS'Nb'
p55
F8.5700000000000003
sS'Nd'
p56
F7.0069999999999997
sS'Ne'
p57
F0.00089990000000000003
sS'Np'
p58
F20.449999999999999
sS'Fr'
p59
F1.8700000000000001
sS'Fe'
p60
F7.8739999999999997
sS'B'
p61
F2.3399999999999999
sS'F'
p62
F0.001696
sS'Sr'
p63
F2.6400000000000001
sS'N'
p64
F0.0012505999999999999
sS'Kr'
p65
F0.0037330000000000002
sS'Si'
p66
F2.3296000000000001
sS'Sn'
p67
F7.2869999999999999
sS'Sm'
p68
F7.5199999999999996
sS'V'
p69
F6.1100000000000003
sS'Sc'
p70
F2.9889999999999999
sS'Sb'
p71
F6.6849999999999996
sS'Sg'
p72
I35
sS'Se'
p73
F4.8090000000000002
sS'Co'
p74
F8.8599999999999994
sS'Cm'
p75
F13.51
sS'Cl'
p76
F0.0032139999999999998
sS'Ca'
p77
F1.54
sS'Cf'
p78
F15.1
sS'Ce'
p79
F6.7699999999999996
sS'Xe'
p80
F0.0058869999999999999
sS'Tm'
p81
F9.3209999999999997
sS'Cs'
p82
F1.873
sS'Cr'
p83
F7.1500000000000004
sS'Cu'
p84
F8.9600000000000009
sS'La'
p85
F6.1449999999999996
sS'Li'
p86
F0.53400000000000003
sS'Tl'
p87
F11.85
sS'Lu'
p88
F9.8399999999999999
sS'Lr'
p89
F9.8399999999999999
sS'Th'
p90
F11.720000000000001
sS'Ti'
p91
F4.54
sS'Te'
p92
F6.2320000000000002
sS'Tb'
p93
F8.2289999999999992
sS'Tc'
p94
F11.5
sS'Ta'
p95
F16.654
sS'Hs'
p96
I41
sS'Yb'
p97
F6.9649999999999999
sS'Db'
p98
I39
sS'Dy'
p99
F8.5500000000000007
sS'Ds'
p100
F21.460000000000001
sS'I'
p101
F4.9299999999999997
sS'U'
p102
F18.949999999999999
sS'Y'
p103
F4.4690000000000003
sS'Ac'
p104
F10.07
sS'Ag'
p105
F10.500999999999999
sS'Ir'
p106
F22.649999999999999
sS'Am'
p107
F13.69
sS'Al'
p108
F2.698
sS'As'
p109
F5.7759999999999998
sS'Ar'
p110
F0.0017837
sS'Au'
p111
F19.282
sS'At'
p112
I7
sS'In'
p113
F7.3099999999999996
s.